target datalayout = "e-m:e-p270:32:32-p271:32:32-p272:64:64-i64:64-i128:128-f80:128-n8:16:32:64-S128"
target triple = "x86_64-pc-linux-gnu"

%class.symbol = type { ptr }
%"class.opt::optsmt" = type { ptr, ptr, ptr, %class.vector, %class.vector, %class.ref_vector, %class.ref_vector.1, %class.svector, %class.symbol, %class.ref, %class.ref, %class.svector.7, %class.ref_vector_core.9 }
%class.vector = type { ptr }
%class.ref_vector = type { %class.ref_vector_core }
%class.ref_vector_core = type { %class.ref_manager_wrapper, %class.ptr_vector }
%class.ref_manager_wrapper = type { ptr }
%class.ptr_vector = type { %class.vector.0 }
%class.vector.0 = type { ptr }
%class.ref_vector.1 = type { %class.ref_vector_core.2 }
%class.ref_vector_core.2 = type { %class.ref_manager_wrapper.3, %class.ptr_vector.4 }
%class.ref_manager_wrapper.3 = type { ptr }
%class.ptr_vector.4 = type { %class.vector.5 }
%class.vector.5 = type { ptr }
%class.svector = type { %class.vector.6 }
%class.vector.6 = type { ptr }
%class.ref = type { ptr }
%class.svector.7 = type { %class.vector.8 }
%class.vector.8 = type { ptr }
%class.ref_vector_core.9 = type { %class.ptr_vector.10 }
%class.ptr_vector.10 = type { %class.vector.11 }
%class.vector.11 = type { ptr }
%"class.solver::scoped_push" = type <{ ptr, i8, [7 x i8] }>

@.str.17 = private unnamed_addr constant [6 x i8] c"symba\00", align 1

; Function Attrs: mustprogress nounwind uwtable
define linkonce_odr hidden void @_ZN6solver11scoped_pushD2Ev(ptr noundef nonnull align 8 dereferenceable(9) %0) unnamed_addr #4 comdat align 2 personality ptr @__gxx_personality_v0 {
  %2 = alloca ptr, align 8
  store ptr %0, ptr %2, align 8, !tbaa !156
  %3 = load ptr, ptr %2, align 8
  %4 = getelementptr inbounds nuw %"class.solver::scoped_push", ptr %3, i32 0, i32 1
  %5 = load i8, ptr %4, align 8, !tbaa !160, !range !12, !noundef !13
  %6 = trunc i8 %5 to i1
  br i1 %6, label %14, label %7

7:                                                ; preds = %1
  %8 = getelementptr inbounds nuw %"class.solver::scoped_push", ptr %3, i32 0, i32 0
  %9 = load ptr, ptr %8, align 8, !tbaa !166
  %10 = load ptr, ptr %9, align 8, !tbaa !68
  %11 = getelementptr inbounds ptr, ptr %10, i64 25
  %12 = load ptr, ptr %11, align 8
  invoke void %12(ptr noundef nonnull align 8 dereferenceable(96) %9, i32 noundef 1)
          to label %13 unwind label %15

13:                                               ; preds = %7
  br label %14

14:                                               ; preds = %13, %1
  ret void

15:                                               ; preds = %7
  %16 = landingpad { ptr, i32 }
          catch ptr null
  %17 = extractvalue { ptr, i32 } %16, 0
  call void @__clang_call_terminate(ptr %17) #20
  unreachable
}

; Function Attrs: mustprogress nounwind uwtable
define linkonce_odr hidden noundef zeroext i1 @_ZeqRK6symbolS1_(ptr noundef nonnull align 8 dereferenceable(8) %0, ptr noundef nonnull align 8 dereferenceable(8) %1) #4 comdat {
  %3 = alloca ptr, align 8
  %4 = alloca ptr, align 8
  store ptr %0, ptr %3, align 8, !tbaa !224
  store ptr %1, ptr %4, align 8, !tbaa !224
  %5 = load ptr, ptr %3, align 8, !tbaa !224
  %6 = getelementptr inbounds nuw %class.symbol, ptr %5, i32 0, i32 0
  %7 = load ptr, ptr %6, align 8, !tbaa !225
  %8 = load ptr, ptr %4, align 8, !tbaa !224
  %9 = getelementptr inbounds nuw %class.symbol, ptr %8, i32 0, i32 0
  %10 = load ptr, ptr %9, align 8, !tbaa !225
  %11 = icmp eq ptr %7, %10
  ret i1 %11
}

; Function Attrs: mustprogress uwtable
define linkonce_odr hidden void @_ZN6solver11scoped_pushC2ERS_(ptr noundef nonnull align 8 dereferenceable(9) %0, ptr noundef nonnull align 8 dereferenceable(96) %1) unnamed_addr #6 comdat align 2 {
  %3 = alloca ptr, align 8
  %4 = alloca ptr, align 8
  store ptr %0, ptr %3, align 8, !tbaa !156
  store ptr %1, ptr %4, align 8, !tbaa !158
  %5 = load ptr, ptr %3, align 8
  %6 = getelementptr inbounds nuw %"class.solver::scoped_push", ptr %5, i32 0, i32 0
  %7 = load ptr, ptr %4, align 8, !tbaa !158
  store ptr %7, ptr %6, align 8, !tbaa !158
  %8 = getelementptr inbounds nuw %"class.solver::scoped_push", ptr %5, i32 0, i32 1
  store i8 0, ptr %8, align 8, !tbaa !160
  %9 = load ptr, ptr %4, align 8, !tbaa !158
  %10 = load ptr, ptr %9, align 8, !tbaa !68
  %11 = getelementptr inbounds ptr, ptr %10, i64 24
  %12 = load ptr, ptr %11, align 8
  call void %12(ptr noundef nonnull align 8 dereferenceable(96) %9)
  ret void
}

; Function Attrs: mustprogress nounwind uwtable
define linkonce_odr hidden noundef zeroext i1 @_ZNK6vectorIiLb0EjE5emptyEv(ptr noundef nonnull align 8 dereferenceable(8) %0) #4 comdat align 2 {
  %2 = alloca ptr, align 8
  store ptr %0, ptr %2, align 8, !tbaa !202
  %3 = load ptr, ptr %2, align 8
  %4 = getelementptr inbounds nuw %class.vector.6, ptr %3, i32 0, i32 0
  %5 = load ptr, ptr %4, align 8, !tbaa !204
  %6 = icmp eq ptr %5, null
  br i1 %6, label %13, label %7

7:                                                ; preds = %1
  %8 = getelementptr inbounds nuw %class.vector.6, ptr %3, i32 0, i32 0
  %9 = load ptr, ptr %8, align 8, !tbaa !204
  %10 = getelementptr inbounds i32, ptr %9, i64 -1
  %11 = load i32, ptr %10, align 4, !tbaa !8
  %12 = icmp eq i32 %11, 0
  br label %13

13:                                               ; preds = %7, %1
  %14 = phi i1 [ true, %1 ], [ %12, %7 ]
  ret i1 %14
}

; Function Attrs: mustprogress uwtable
define hidden noundef i32 @_ZN3opt6optsmt3boxEv(ptr noundef nonnull align 8 dereferenceable(120) %0) #6 align 2 personality ptr @__gxx_personality_v0 {
  %2 = alloca i32, align 4
  %3 = alloca ptr, align 8
  %4 = alloca i32, align 4
  %5 = alloca i32, align 4
  %6 = alloca %"class.solver::scoped_push", align 8
  %7 = alloca %class.symbol, align 8
  %8 = alloca ptr, align 8
  %9 = alloca i32, align 4
  store ptr %0, ptr %3, align 8, !tbaa !28
  %10 = load ptr, ptr %3, align 8
  call void @llvm.lifetime.start.p0(i64 4, ptr %4) #3
  store i32 1, ptr %4, align 4, !tbaa !148
  %11 = getelementptr inbounds nuw %"class.opt::optsmt", ptr %10, i32 0, i32 7
  %12 = call noundef zeroext i1 @_ZNK6vectorIiLb0EjE5emptyEv(ptr noundef nonnull align 8 dereferenceable(8) %11)
  br i1 %12, label %13, label %15

13:                                               ; preds = %1
  %14 = load i32, ptr %4, align 4, !tbaa !148
  store i32 %14, ptr %2, align 4
  store i32 1, ptr %5, align 4
  br label %39

15:                                               ; preds = %1
  call void @llvm.lifetime.start.p0(i64 16, ptr %6) #3
  %16 = getelementptr inbounds nuw %"class.opt::optsmt", ptr %10, i32 0, i32 2
  %17 = load ptr, ptr %16, align 8, !tbaa !34
  call void @_ZN6solver11scoped_pushC2ERS_(ptr noundef nonnull align 8 dereferenceable(9) %6, ptr noundef nonnull align 8 dereferenceable(96) %17)
  %18 = getelementptr inbounds nuw %"class.opt::optsmt", ptr %10, i32 0, i32 8
  call void @llvm.lifetime.start.p0(i64 8, ptr %7) #3
  invoke void @_ZN6symbolC1EPKc(ptr noundef nonnull align 8 dereferenceable(8) %7, ptr noundef @.str.17)
          to label %19 unwind label %25

19:                                               ; preds = %15
  %20 = invoke noundef zeroext i1 @_ZeqRK6symbolS1_(ptr noundef nonnull align 8 dereferenceable(8) %18, ptr noundef nonnull align 8 dereferenceable(8) %7)
          to label %21 unwind label %25

21:                                               ; preds = %19
  call void @llvm.lifetime.end.p0(i64 8, ptr %7) #3
  br i1 %20, label %22, label %33

22:                                               ; preds = %21
  %23 = invoke noundef i32 @_ZN3opt6optsmt9symba_optEv(ptr noundef nonnull align 8 dereferenceable(120) %10)
          to label %24 unwind label %29

24:                                               ; preds = %22
  store i32 %23, ptr %4, align 4, !tbaa !148
  br label %36

25:                                               ; preds = %19, %15
  %26 = landingpad { ptr, i32 }
          cleanup
  %27 = extractvalue { ptr, i32 } %26, 0
  store ptr %27, ptr %8, align 8
  %28 = extractvalue { ptr, i32 } %26, 1
  store i32 %28, ptr %9, align 4
  call void @llvm.lifetime.end.p0(i64 8, ptr %7) #3
  br label %38

29:                                               ; preds = %33, %22
  %30 = landingpad { ptr, i32 }
          cleanup
  %31 = extractvalue { ptr, i32 } %30, 0
  store ptr %31, ptr %8, align 8
  %32 = extractvalue { ptr, i32 } %30, 1
  store i32 %32, ptr %9, align 4
  br label %38

33:                                               ; preds = %21
  %34 = invoke noundef i32 @_ZN3opt6optsmt13geometric_optEv(ptr noundef nonnull align 8 dereferenceable(120) %10)
          to label %35 unwind label %29

35:                                               ; preds = %33
  store i32 %34, ptr %4, align 4, !tbaa !148
  br label %36

36:                                               ; preds = %35, %24
  %37 = load i32, ptr %4, align 4, !tbaa !148
  store i32 %37, ptr %2, align 4
  store i32 1, ptr %5, align 4
  call void @_ZN6solver11scoped_pushD2Ev(ptr noundef nonnull align 8 dereferenceable(9) %6) #3
  call void @llvm.lifetime.end.p0(i64 16, ptr %6) #3
  br label %39

38:                                               ; preds = %29, %25
  call void @_ZN6solver11scoped_pushD2Ev(ptr noundef nonnull align 8 dereferenceable(9) %6) #3
  call void @llvm.lifetime.end.p0(i64 16, ptr %6) #3
  call void @llvm.lifetime.end.p0(i64 4, ptr %4) #3
  br label %41

39:                                               ; preds = %36, %13
  call void @llvm.lifetime.end.p0(i64 4, ptr %4) #3
  %40 = load i32, ptr %2, align 4
  ret i32 %40

41:                                               ; preds = %38
  %42 = load ptr, ptr %8, align 8
  %43 = load i32, ptr %9, align 4
  %44 = insertvalue { ptr, i32 } poison, ptr %42, 0
  %45 = insertvalue { ptr, i32 } %44, i32 %43, 1
  resume { ptr, i32 } %45
}