; Function Attrs: mustprogress uwtable
define hidden noundef range(i32 0, 2) i32 @_ZN3opt6optsmt3boxEv(ptr noundef nonnull align 8 dereferenceable(120) %0) local_unnamed_addr #4 align 2 personality ptr @__gxx_personality_v0 {
  %2 = alloca %class.symbol, align 8
  %3 = getelementptr inbounds nuw i8, ptr %0, i64 72
  %4 = load ptr, ptr %3, align 8, !tbaa !168
  %5 = icmp eq ptr %4, null
  br i1 %5, label %_ZN6solver11scoped_pushD2Ev.exit, label %_ZNK6vectorIiLb0EjE5emptyEv.exit

_ZNK6vectorIiLb0EjE5emptyEv.exit:                 ; preds = %1
  %6 = getelementptr inbounds i8, ptr %4, i64 -4
  %7 = load i32, ptr %6, align 4, !tbaa !9
  %8 = icmp eq i32 %7, 0
  br i1 %8, label %_ZN6solver11scoped_pushD2Ev.exit, label %9

9:                                                ; preds = %_ZNK6vectorIiLb0EjE5emptyEv.exit
  %10 = getelementptr inbounds nuw i8, ptr %0, i64 16
  %11 = load ptr, ptr %10, align 8, !tbaa !16
  %12 = load ptr, ptr %11, align 8, !tbaa !61
  %13 = getelementptr inbounds nuw i8, ptr %12, i64 192
  %14 = load ptr, ptr %13, align 8
  tail call void %14(ptr noundef nonnull align 8 dereferenceable(96) %11)
  call void @llvm.lifetime.start.p0(i64 8, ptr nonnull %2) #23
  invoke void @_ZN6symbolC1EPKc(ptr noundef nonnull align 8 dereferenceable(8) %2, ptr noundef nonnull @.str.17)
          to label %15 unwind label %22

15:                                               ; preds = %9
  %16 = getelementptr inbounds nuw i8, ptr %0, i64 80
  %17 = load ptr, ptr %16, align 8, !tbaa !190
  %18 = load ptr, ptr %2, align 8, !tbaa !190
  %19 = icmp eq ptr %17, %18
  call void @llvm.lifetime.end.p0(i64 8, ptr nonnull %2) #23
  br i1 %19, label %20, label %26

20:                                               ; preds = %15
  %21 = invoke noundef i32 @_ZN3opt6optsmt9symba_optEv(ptr noundef nonnull align 8 dereferenceable(120) %0)
          to label %28 unwind label %24

22:                                               ; preds = %9
  %23 = landingpad { ptr, i32 }
          cleanup
  call void @llvm.lifetime.end.p0(i64 8, ptr nonnull %2) #23
  br label %35

24:                                               ; preds = %26, %20
  %25 = landingpad { ptr, i32 }
          cleanup
  br label %35

26:                                               ; preds = %15
  %27 = invoke noundef i32 @_ZN3opt6optsmt13geometric_optEv(ptr noundef nonnull align 8 dereferenceable(120) %0)
          to label %28 unwind label %24

28:                                               ; preds = %20, %26
  %.06 = phi i32 [ %21, %20 ], [ %27, %26 ]
  %29 = load ptr, ptr %11, align 8, !tbaa !61
  %30 = getelementptr inbounds nuw i8, ptr %29, i64 200
  %31 = load ptr, ptr %30, align 8
  invoke void %31(ptr noundef nonnull align 8 dereferenceable(96) %11, i32 noundef 1)
          to label %_ZN6solver11scoped_pushD2Ev.exit unwind label %32

32:                                               ; preds = %28
  %33 = landingpad { ptr, i32 }
          catch ptr null
  %34 = extractvalue { ptr, i32 } %33, 0
  call void @__clang_call_terminate(ptr %34) #24
  unreachable

35:                                               ; preds = %22, %24
  %.pn = phi { ptr, i32 } [ %25, %24 ], [ %23, %22 ]
  %36 = load ptr, ptr %11, align 8, !tbaa !61
  %37 = getelementptr inbounds nuw i8, ptr %36, i64 200
  %38 = load ptr, ptr %37, align 8
  invoke void %38(ptr noundef nonnull align 8 dereferenceable(96) %11, i32 noundef 1)
          to label %_ZN6solver11scoped_pushD2Ev.exit9 unwind label %39

39:                                               ; preds = %35
  %40 = landingpad { ptr, i32 }
          catch ptr null
  %41 = extractvalue { ptr, i32 } %40, 0
  call void @__clang_call_terminate(ptr %41) #24
  unreachable

_ZN6solver11scoped_pushD2Ev.exit9:                ; preds = %35
  resume { ptr, i32 } %.pn

_ZN6solver11scoped_pushD2Ev.exit:                 ; preds = %1, %28, %_ZNK6vectorIiLb0EjE5emptyEv.exit
  %.07 = phi i32 [ 1, %_ZNK6vectorIiLb0EjE5emptyEv.exit ], [ %.06, %28 ], [ 1, %1 ]
  ret i32 %.07
}